#include <math.h>
#include <stdio.h>
#include <stdlib.h>
#include <string.h>



void main()
{int m,n,p=0;
scanf("%d",&n);
int i;
while(n!=0)
{printf("%d",n%10);
n=n/10;}
/*for(i=m;i<=n;i++)
{	if(i%7==0) 
	{if(p==1)
	{putchar(',');p--;}
	printf("%d",i);
	p++;}
}*/
}